; Function Attrs: nounwind uwtable
define internal i32 @searcher_Croot(ptr noundef %0) #0 {
  %2 = tail call ptr @luaL_checklstring(ptr noundef %0, i32 noundef 1, ptr noundef null) #7
  %3 = tail call ptr @strchr(ptr noundef nonnull dereferenceable(1) %2, i32 noundef 46) #8
  %4 = icmp eq ptr %3, null
  br i1 %4, label %27, label %5

5:                                                ; preds = %1
  %6 = ptrtoint ptr %3 to i64
  %7 = ptrtoint ptr %2 to i64
  %8 = sub i64 %6, %7
  %9 = tail call ptr @lua_pushlstring(ptr noundef %0, ptr noundef nonnull %2, i64 noundef %8) #7
  %10 = tail call ptr @lua_tolstring(ptr noundef %0, i32 noundef -1, ptr noundef null) #7
  %11 = tail call i32 @lua_getfield(ptr noundef %0, i32 noundef -1001001, ptr noundef nonnull @.str.3) #7
  %12 = tail call ptr @lua_tolstring(ptr noundef %0, i32 noundef -1, ptr noundef null) #7
  %13 = icmp eq ptr %12, null
  br i1 %13, label %.split11.i, label %findfile.exit, !prof !17

.split11.i:                                       ; preds = %5
  %14 = tail call i32 (ptr, ptr, ...) @luaL_error(ptr noundef %0, ptr noundef nonnull @.str.29, ptr noundef nonnull @.str.3) #7
  br label %findfile.exit

findfile.exit:                                    ; preds = %5, %.split11.i
  %15 = tail call fastcc ptr @searchpath(ptr noundef %0, ptr noundef %10, ptr noundef %12, ptr noundef nonnull @.str.19, ptr noundef nonnull @.str.20)
  %16 = icmp eq ptr %15, null
  br i1 %16, label %27, label %17

17:                                               ; preds = %findfile.exit
  %18 = tail call fastcc i32 @loadfunc(ptr noundef %0, ptr noundef %15, ptr noundef nonnull %2)
  switch i32 %18, label %19 [
    i32 0, label %25
    i32 2, label %23
  ]

19:                                               ; preds = %17
  %20 = tail call ptr @lua_tolstring(ptr noundef %0, i32 noundef 1, ptr noundef null) #7
  %21 = tail call ptr @lua_tolstring(ptr noundef %0, i32 noundef -1, ptr noundef null) #7
  %22 = tail call i32 (ptr, ptr, ...) @luaL_error(ptr noundef %0, ptr noundef nonnull @.str.30, ptr noundef %20, ptr noundef nonnull %15, ptr noundef %21) #7
  br label %27

23:                                               ; preds = %17
  %24 = tail call ptr (ptr, ptr, ...) @lua_pushfstring(ptr noundef %0, ptr noundef nonnull @.str.34, ptr noundef nonnull %2, ptr noundef nonnull %15) #7
  br label %27

25:                                               ; preds = %17
  %26 = tail call ptr @lua_pushstring(ptr noundef %0, ptr noundef nonnull %15) #7
  br label %27

27:                                               ; preds = %findfile.exit, %1, %25, %23, %19
  %.0 = phi i32 [ %22, %19 ], [ 1, %23 ], [ 2, %25 ], [ 0, %1 ], [ 1, %findfile.exit ]
  ret i32 %.0
}